; Function Attrs: nounwind uwtable
define i32 @arkStep_SetPredictorMethod(ptr noundef %0, i32 noundef %1) local_unnamed_addr #0 {
  %3 = alloca ptr, align 8
  call void @llvm.lifetime.start.p0(i64 8, ptr nonnull %3) #5
  %4 = call i32 @arkStep_AccessStepMem(ptr noundef %0, ptr noundef nonnull @__func__.arkStep_SetPredictorMethod, ptr noundef nonnull %3) #5
  %.not = icmp eq i32 %4, 0
  br i1 %.not, label %5, label %10

5:                                                ; preds = %2
  %6 = load ptr, ptr %3, align 8, !tbaa !3
  %7 = getelementptr inbounds nuw i8, ptr %6, i64 184
  store i32 %1, ptr %7, align 8, !tbaa !60
  %8 = call i32 @arkStep_SetNlsSysFn(ptr noundef %0) #5
  %.not8 = icmp eq i32 %8, 0
  br i1 %.not8, label %10, label %9

9:                                                ; preds = %5
  call void (ptr, i32, i32, ptr, ptr, ptr, ...) @arkProcessError(ptr noundef %0, i32 noundef -22, i32 noundef 1046, ptr noundef nonnull @__func__.arkStep_SetPredictorMethod, ptr noundef nonnull @.str, ptr noundef nonnull @.str.21) #5
  br label %10

10:                                               ; preds = %5, %2, %9
  %.0 = phi i32 [ -22, %9 ], [ %4, %2 ], [ 0, %5 ]
  call void @llvm.lifetime.end.p0(i64 8, ptr nonnull %3) #5
  ret i32 %.0
}